target datalayout = "e-m:e-p270:32:32-p271:32:32-p272:64:64-i64:64-i128:128-f80:128-n8:16:32:64-S128"
target triple = "x86_64-pc-linux-gnu"

@whereToSendOutput = external global i32, align 4
@log_min_messages = external global i32, align 4
@ClientAuthInProgress = external global i8, align 1
@client_min_messages = external global i32, align 4

; Function Attrs: inlinehint nounwind uwtable
define internal zeroext i1 @is_log_level_output(i32 noundef %0, i32 noundef %1) #1 {
  %3 = alloca i1, align 1
  %4 = alloca i32, align 4
  %5 = alloca i32, align 4
  store i32 %0, ptr %4, align 4
  store i32 %1, ptr %5, align 4
  %6 = load i32, ptr %4, align 4
  %7 = icmp eq i32 %6, 15
  br i1 %7, label %11, label %8

8:                                                ; preds = %2
  %9 = load i32, ptr %4, align 4
  %10 = icmp eq i32 %9, 16
  br i1 %10, label %11, label %19

11:                                               ; preds = %8, %2
  %12 = load i32, ptr %5, align 4
  %13 = icmp eq i32 %12, 15
  br i1 %13, label %17, label %14

14:                                               ; preds = %11
  %15 = load i32, ptr %5, align 4
  %16 = icmp sle i32 %15, 21
  br i1 %16, label %17, label %18

17:                                               ; preds = %14, %11
  store i1 true, ptr %3, align 1
  br label %40

18:                                               ; preds = %14
  br label %39

19:                                               ; preds = %8
  %20 = load i32, ptr %4, align 4
  %21 = icmp eq i32 %20, 20
  br i1 %21, label %22, label %23

22:                                               ; preds = %19
  store i1 false, ptr %3, align 1
  br label %40

23:                                               ; preds = %19
  %24 = load i32, ptr %5, align 4
  %25 = icmp eq i32 %24, 15
  br i1 %25, label %26, label %31

26:                                               ; preds = %23
  %27 = load i32, ptr %4, align 4
  %28 = icmp sge i32 %27, 22
  br i1 %28, label %29, label %30

29:                                               ; preds = %26
  store i1 true, ptr %3, align 1
  br label %40

30:                                               ; preds = %26
  br label %37

31:                                               ; preds = %23
  %32 = load i32, ptr %4, align 4
  %33 = load i32, ptr %5, align 4
  %34 = icmp sge i32 %32, %33
  br i1 %34, label %35, label %36

35:                                               ; preds = %31
  store i1 true, ptr %3, align 1
  br label %40

36:                                               ; preds = %31
  br label %37

37:                                               ; preds = %36, %30
  br label %38

38:                                               ; preds = %37
  br label %39

39:                                               ; preds = %38, %18
  store i1 false, ptr %3, align 1
  br label %40

40:                                               ; preds = %39, %35, %29, %22, %17
  %41 = load i1, ptr %3, align 1
  ret i1 %41
}

; Function Attrs: inlinehint nounwind uwtable
define internal zeroext i1 @should_output_to_client(i32 noundef %0) #1 {
  %2 = alloca i1, align 1
  %3 = alloca i32, align 4
  store i32 %0, ptr %3, align 4
  %4 = load i32, ptr @whereToSendOutput, align 4
  %5 = icmp eq i32 %4, 2
  br i1 %5, label %6, label %24

6:                                                ; preds = %1
  %7 = load i32, ptr %3, align 4
  %8 = icmp ne i32 %7, 16
  br i1 %8, label %9, label %24

9:                                                ; preds = %6
  %10 = load i8, ptr @ClientAuthInProgress, align 1, !range !4, !noundef !5
  %11 = trunc i8 %10 to i1
  br i1 %11, label %12, label %15

12:                                               ; preds = %9
  %13 = load i32, ptr %3, align 4
  %14 = icmp sge i32 %13, 21
  store i1 %14, ptr %2, align 1
  br label %25

15:                                               ; preds = %9
  %16 = load i32, ptr %3, align 4
  %17 = load i32, ptr @client_min_messages, align 4
  %18 = icmp sge i32 %16, %17
  br i1 %18, label %22, label %19

19:                                               ; preds = %15
  %20 = load i32, ptr %3, align 4
  %21 = icmp eq i32 %20, 17
  br label %22

22:                                               ; preds = %19, %15
  %23 = phi i1 [ true, %15 ], [ %21, %19 ]
  store i1 %23, ptr %2, align 1
  br label %25

24:                                               ; preds = %6, %1
  store i1 false, ptr %2, align 1
  br label %25

25:                                               ; preds = %24, %22, %12
  %26 = load i1, ptr %2, align 1
  ret i1 %26
}

; Function Attrs: inlinehint nounwind uwtable
define internal zeroext i1 @should_output_to_server(i32 noundef %0) #1 {
  %2 = alloca i32, align 4
  store i32 %0, ptr %2, align 4
  %3 = load i32, ptr %2, align 4
  %4 = load i32, ptr @log_min_messages, align 4
  %5 = call zeroext i1 @is_log_level_output(i32 noundef %3, i32 noundef %4)
  ret i1 %5
}

; Function Attrs: nounwind uwtable
define dso_local zeroext i1 @message_level_is_interesting(i32 noundef %0) #0 {
  %2 = alloca i1, align 1
  %3 = alloca i32, align 4
  store i32 %0, ptr %3, align 4
  %4 = load i32, ptr %3, align 4
  %5 = icmp sge i32 %4, 21
  br i1 %5, label %12, label %6

6:                                                ; preds = %1
  %7 = load i32, ptr %3, align 4
  %8 = call zeroext i1 @should_output_to_server(i32 noundef %7)
  br i1 %8, label %12, label %9

9:                                                ; preds = %6
  %10 = load i32, ptr %3, align 4
  %11 = call zeroext i1 @should_output_to_client(i32 noundef %10)
  br i1 %11, label %12, label %13

12:                                               ; preds = %9, %6, %1
  store i1 true, ptr %2, align 1
  br label %14

13:                                               ; preds = %9
  store i1 false, ptr %2, align 1
  br label %14

14:                                               ; preds = %13, %12
  %15 = load i1, ptr %2, align 1
  ret i1 %15
}