; Function Attrs: mustprogress nofree norecurse nosync nounwind willreturn memory(read, argmem: none, inaccessiblemem: none) uwtable
define dso_local zeroext i1 @message_level_is_interesting(i32 noundef %0) local_unnamed_addr #0 {
  %2 = icmp sgt i32 %0, 20
  br i1 %2, label %should_output_to_client.exit, label %3

3:                                                ; preds = %1
  %4 = load i32, ptr @log_min_messages, align 4
  %5 = add i32 %0, -15
  %or.cond.i.i = icmp ult i32 %5, 2
  br i1 %or.cond.i.i, label %6, label %8

6:                                                ; preds = %3
  %7 = icmp slt i32 %4, 22
  br i1 %7, label %should_output_to_client.exit, label %should_output_to_server.exit

8:                                                ; preds = %3
  %9 = icmp eq i32 %0, 20
  %10 = icmp eq i32 %4, 15
  %.not.i.i = icmp slt i32 %0, %4
  %11 = or i1 %10, %.not.i.i
  %or.cond5 = select i1 %9, i1 true, i1 %11
  br i1 %or.cond5, label %should_output_to_server.exit, label %should_output_to_client.exit

should_output_to_server.exit:                     ; preds = %6, %8
  %12 = load i32, ptr @whereToSendOutput, align 4
  %13 = icmp eq i32 %12, 2
  %14 = icmp ne i32 %0, 16
  %or.cond.i = and i1 %14, %13
  br i1 %or.cond.i, label %15, label %should_output_to_client.exit

15:                                               ; preds = %should_output_to_server.exit
  %16 = load i8, ptr @ClientAuthInProgress, align 1, !range !4, !noundef !5
  %17 = trunc nuw i8 %16 to i1
  br i1 %17, label %should_output_to_client.exit, label %18

18:                                               ; preds = %15
  %19 = load i32, ptr @client_min_messages, align 4
  %20 = icmp sge i32 %0, %19
  %21 = icmp eq i32 %0, 17
  %22 = or i1 %21, %20
  br label %should_output_to_client.exit

should_output_to_client.exit:                     ; preds = %8, %6, %18, %should_output_to_server.exit, %15, %1
  %.0 = phi i1 [ true, %1 ], [ %22, %18 ], [ false, %should_output_to_server.exit ], [ false, %15 ], [ true, %6 ], [ true, %8 ]
  ret i1 %.0
}